; Function Attrs: mustprogress uwtable
define void @_ZN2cv13TrackerGOTURN6ParamsC2Ev(ptr noundef nonnull align 8 dereferenceable(64) %0) unnamed_addr #0 align 2 personality ptr @__gxx_personality_v0 {
  %2 = getelementptr inbounds nuw i8, ptr %0, i64 16
  store ptr %2, ptr %0, align 8, !tbaa !6
  %3 = getelementptr inbounds nuw i8, ptr %0, i64 8
  store i64 0, ptr %3, align 8, !tbaa !11
  store i8 0, ptr %2, align 8, !tbaa !14
  %4 = getelementptr inbounds nuw i8, ptr %0, i64 32
  %5 = getelementptr inbounds nuw i8, ptr %0, i64 48
  store ptr %5, ptr %4, align 8, !tbaa !6
  %6 = getelementptr inbounds nuw i8, ptr %0, i64 40
  store i64 0, ptr %6, align 8, !tbaa !11
  store i8 0, ptr %5, align 8, !tbaa !14
  %7 = invoke noundef nonnull align 8 dereferenceable(32) ptr @_ZNSt7__cxx1112basic_stringIcSt11char_traitsIcESaIcEE10_M_replaceEmmPKcm(ptr noundef nonnull align 8 dereferenceable(32) %0, i64 noundef 0, i64 noundef 0, ptr noundef nonnull @.str, i64 noundef 15)
          to label %_ZNSt7__cxx1112basic_stringIcSt11char_traitsIcESaIcEEaSEPKc.exit unwind label %10

_ZNSt7__cxx1112basic_stringIcSt11char_traitsIcESaIcEEaSEPKc.exit: ; preds = %1
  %8 = load i64, ptr %6, align 8, !tbaa !11
  %9 = invoke noundef nonnull align 8 dereferenceable(32) ptr @_ZNSt7__cxx1112basic_stringIcSt11char_traitsIcESaIcEE10_M_replaceEmmPKcm(ptr noundef nonnull align 8 dereferenceable(32) %4, i64 noundef 0, i64 noundef %8, ptr noundef nonnull @.str.1, i64 noundef 17)
          to label %_ZNSt7__cxx1112basic_stringIcSt11char_traitsIcESaIcEEaSEPKc.exit2 unwind label %10

_ZNSt7__cxx1112basic_stringIcSt11char_traitsIcESaIcEEaSEPKc.exit2: ; preds = %_ZNSt7__cxx1112basic_stringIcSt11char_traitsIcESaIcEEaSEPKc.exit
  ret void

10:                                               ; preds = %_ZNSt7__cxx1112basic_stringIcSt11char_traitsIcESaIcEEaSEPKc.exit, %1
  %11 = landingpad { ptr, i32 }
          cleanup
  %12 = load ptr, ptr %4, align 8, !tbaa !15
  %13 = icmp eq ptr %12, %5
  br i1 %13, label %_ZNKSt7__cxx1112basic_stringIcSt11char_traitsIcESaIcEE11_M_is_localEv.exit.thread.i.i, label %_ZNKSt7__cxx1112basic_stringIcSt11char_traitsIcESaIcEE11_M_is_localEv.exit.i.i

_ZNKSt7__cxx1112basic_stringIcSt11char_traitsIcESaIcEE11_M_is_localEv.exit.thread.i.i: ; preds = %10
  %14 = load i64, ptr %6, align 8, !tbaa !11
  %15 = icmp ult i64 %14, 16
  tail call void @llvm.assume(i1 %15)
  br label %_ZNSt7__cxx1112basic_stringIcSt11char_traitsIcESaIcEED2Ev.exit

_ZNKSt7__cxx1112basic_stringIcSt11char_traitsIcESaIcEE11_M_is_localEv.exit.i.i: ; preds = %10
  tail call void @_ZdlPv(ptr noundef %12) #21
  br label %_ZNSt7__cxx1112basic_stringIcSt11char_traitsIcESaIcEED2Ev.exit

_ZNSt7__cxx1112basic_stringIcSt11char_traitsIcESaIcEED2Ev.exit: ; preds = %_ZNKSt7__cxx1112basic_stringIcSt11char_traitsIcESaIcEE11_M_is_localEv.exit.thread.i.i, %_ZNKSt7__cxx1112basic_stringIcSt11char_traitsIcESaIcEE11_M_is_localEv.exit.i.i
  %16 = load ptr, ptr %0, align 8, !tbaa !15
  %17 = icmp eq ptr %16, %2
  br i1 %17, label %_ZNKSt7__cxx1112basic_stringIcSt11char_traitsIcESaIcEE11_M_is_localEv.exit.thread.i.i4, label %_ZNKSt7__cxx1112basic_stringIcSt11char_traitsIcESaIcEE11_M_is_localEv.exit.i.i3

_ZNKSt7__cxx1112basic_stringIcSt11char_traitsIcESaIcEE11_M_is_localEv.exit.thread.i.i4: ; preds = %_ZNSt7__cxx1112basic_stringIcSt11char_traitsIcESaIcEED2Ev.exit
  %18 = load i64, ptr %3, align 8, !tbaa !11
  %19 = icmp ult i64 %18, 16
  tail call void @llvm.assume(i1 %19)
  br label %_ZNSt7__cxx1112basic_stringIcSt11char_traitsIcESaIcEED2Ev.exit5

_ZNKSt7__cxx1112basic_stringIcSt11char_traitsIcESaIcEE11_M_is_localEv.exit.i.i3: ; preds = %_ZNSt7__cxx1112basic_stringIcSt11char_traitsIcESaIcEED2Ev.exit
  tail call void @_ZdlPv(ptr noundef %16) #21
  br label %_ZNSt7__cxx1112basic_stringIcSt11char_traitsIcESaIcEED2Ev.exit5

_ZNSt7__cxx1112basic_stringIcSt11char_traitsIcESaIcEED2Ev.exit5: ; preds = %_ZNKSt7__cxx1112basic_stringIcSt11char_traitsIcESaIcEE11_M_is_localEv.exit.thread.i.i4, %_ZNKSt7__cxx1112basic_stringIcSt11char_traitsIcESaIcEE11_M_is_localEv.exit.i.i3
  resume { ptr, i32 } %11
}